; Function Attrs: mustprogress nofree nounwind willreturn memory(read, inaccessiblemem: none) uwtable
define noundef ptr @_ZNK5Yosys10LibertyAst4findENSt7__cxx1112basic_stringIcSt11char_traitsIcESaIcEEE(ptr noundef nonnull readonly align 8 captures(none) dereferenceable(112) %0, ptr noundef readonly captures(none) %1) local_unnamed_addr #6 align 2 personality ptr @__gxx_personality_v0 {
  %3 = getelementptr inbounds nuw i8, ptr %0, i64 88
  %4 = load ptr, ptr %3, align 8, !tbaa !6
  %5 = getelementptr inbounds nuw i8, ptr %0, i64 96
  %6 = load ptr, ptr %5, align 8, !tbaa !6
  %.not13 = icmp eq ptr %4, %6
  br i1 %.not13, label %.thread, label %.lr.ph

.lr.ph:                                           ; preds = %2
  %7 = getelementptr inbounds nuw i8, ptr %1, i64 8
  %8 = load i64, ptr %7, align 8, !tbaa !25
  %9 = icmp eq i64 %8, 0
  br label %10

10:                                               ; preds = %.lr.ph, %_ZSteqIcEN9__gnu_cxx11__enable_ifIXsr9__is_charIT_EE7__valueEbE6__typeERKNSt7__cxx1112basic_stringIS2_St11char_traitsIS2_ESaIS2_EEESC_.exit.thread12
  %.sroa.09.014 = phi ptr [ %4, %.lr.ph ], [ %19, %_ZSteqIcEN9__gnu_cxx11__enable_ifIXsr9__is_charIT_EE7__valueEbE6__typeERKNSt7__cxx1112basic_stringIS2_St11char_traitsIS2_ESaIS2_EEESC_.exit.thread12 ]
  %11 = load ptr, ptr %.sroa.09.014, align 8, !tbaa !30
  %12 = getelementptr inbounds nuw i8, ptr %11, i64 8
  %13 = load i64, ptr %12, align 8, !tbaa !25
  %14 = icmp eq i64 %13, %8
  br i1 %14, label %15, label %_ZSteqIcEN9__gnu_cxx11__enable_ifIXsr9__is_charIT_EE7__valueEbE6__typeERKNSt7__cxx1112basic_stringIS2_St11char_traitsIS2_ESaIS2_EEESC_.exit.thread12

15:                                               ; preds = %10
  br i1 %9, label %.thread, label %_ZSteqIcEN9__gnu_cxx11__enable_ifIXsr9__is_charIT_EE7__valueEbE6__typeERKNSt7__cxx1112basic_stringIS2_St11char_traitsIS2_ESaIS2_EEESC_.exit

_ZSteqIcEN9__gnu_cxx11__enable_ifIXsr9__is_charIT_EE7__valueEbE6__typeERKNSt7__cxx1112basic_stringIS2_St11char_traitsIS2_ESaIS2_EEESC_.exit: ; preds = %15
  %16 = load ptr, ptr %1, align 8, !tbaa !20
  %17 = load ptr, ptr %11, align 8, !tbaa !20
  %bcmp.i = tail call i32 @bcmp(ptr %17, ptr %16, i64 %8)
  %18 = icmp eq i32 %bcmp.i, 0
  br i1 %18, label %.thread, label %_ZSteqIcEN9__gnu_cxx11__enable_ifIXsr9__is_charIT_EE7__valueEbE6__typeERKNSt7__cxx1112basic_stringIS2_St11char_traitsIS2_ESaIS2_EEESC_.exit.thread12

_ZSteqIcEN9__gnu_cxx11__enable_ifIXsr9__is_charIT_EE7__valueEbE6__typeERKNSt7__cxx1112basic_stringIS2_St11char_traitsIS2_ESaIS2_EEESC_.exit.thread12: ; preds = %10, %_ZSteqIcEN9__gnu_cxx11__enable_ifIXsr9__is_charIT_EE7__valueEbE6__typeERKNSt7__cxx1112basic_stringIS2_St11char_traitsIS2_ESaIS2_EEESC_.exit
  %19 = getelementptr inbounds nuw i8, ptr %.sroa.09.014, i64 8
  %.not = icmp eq ptr %19, %6
  br i1 %.not, label %.thread, label %10

.thread:                                          ; preds = %_ZSteqIcEN9__gnu_cxx11__enable_ifIXsr9__is_charIT_EE7__valueEbE6__typeERKNSt7__cxx1112basic_stringIS2_St11char_traitsIS2_ESaIS2_EEESC_.exit.thread12, %15, %_ZSteqIcEN9__gnu_cxx11__enable_ifIXsr9__is_charIT_EE7__valueEbE6__typeERKNSt7__cxx1112basic_stringIS2_St11char_traitsIS2_ESaIS2_EEESC_.exit, %2
  %spec.select = phi ptr [ null, %2 ], [ %11, %_ZSteqIcEN9__gnu_cxx11__enable_ifIXsr9__is_charIT_EE7__valueEbE6__typeERKNSt7__cxx1112basic_stringIS2_St11char_traitsIS2_ESaIS2_EEESC_.exit ], [ %11, %15 ], [ null, %_ZSteqIcEN9__gnu_cxx11__enable_ifIXsr9__is_charIT_EE7__valueEbE6__typeERKNSt7__cxx1112basic_stringIS2_St11char_traitsIS2_ESaIS2_EEESC_.exit.thread12 ]
  ret ptr %spec.select
}